target datalayout = "e-m:e-p270:32:32-p271:32:32-p272:64:64-i64:64-i128:128-f80:128-n8:16:32:64-S128"
target triple = "x86_64-pc-linux-gnu"

%struct.FLAC__OggDecoderAspect = type { i32, i64, %struct.ogg_stream_state, %struct.ogg_sync_state, i32, i32, i32, i32, i32, i32, i32, i32, i32, %struct.ogg_page, i32, %struct.ogg_packet, ptr, %struct.FLAC__OggDecoderAspect_TargetLink, i32, i32, i32, i32, i32, i32 }
%struct.ogg_stream_state = type { ptr, i64, i64, i64, ptr, ptr, i64, i64, i64, i64, [282 x i8], i32, i32, i32, i64, i64, i64, i64 }
%struct.ogg_sync_state = type { ptr, i32, i32, i32, i32, i32, i32 }
%struct.ogg_page = type { ptr, i64, ptr, i64 }
%struct.ogg_packet = type { ptr, i64, i64, i64, i64, i64 }
%struct.FLAC__OggDecoderAspect_TargetLink = type { i64, i64, i64, i64, i64, i32 }
%struct.FLAC__OggDecoderAspect_LinkDetails = type { i64, i64, i64, i64, i32, ptr, i32 }

; Function Attrs: nounwind sspstrong uwtable
define hidden ptr @FLAC__ogg_decoder_aspect_get_target_link(ptr noundef %0, i64 noundef %1) #0 {
  %3 = alloca ptr, align 8
  %4 = alloca ptr, align 8
  %5 = alloca i64, align 8
  %6 = alloca i32, align 4
  %7 = alloca i32, align 4
  %8 = alloca i32, align 4
  store ptr %0, ptr %4, align 8, !tbaa !3
  store i64 %1, ptr %5, align 8, !tbaa !36
  call void @llvm.lifetime.start.p0(i64 4, ptr %6) #9
  store i32 0, ptr %6, align 4, !tbaa !37
  call void @llvm.lifetime.start.p0(i64 4, ptr %7) #9
  store i32 0, ptr %7, align 4, !tbaa !37
  br label %9

9:                                                ; preds = %97, %2
  %10 = load i32, ptr %6, align 4, !tbaa !37
  %11 = load ptr, ptr %4, align 8, !tbaa !3
  %12 = getelementptr inbounds nuw %struct.FLAC__OggDecoderAspect, ptr %11, i32 0, i32 19
  %13 = load i32, ptr %12, align 4, !tbaa !31
  %14 = icmp ult i32 %10, %13
  br i1 %14, label %15, label %100

15:                                               ; preds = %9
  %16 = load ptr, ptr %4, align 8, !tbaa !3
  %17 = getelementptr inbounds nuw %struct.FLAC__OggDecoderAspect, ptr %16, i32 0, i32 16
  %18 = load ptr, ptr %17, align 8, !tbaa !34
  %19 = load i32, ptr %6, align 4, !tbaa !37
  %20 = zext i32 %19 to i64
  %21 = getelementptr inbounds nuw %struct.FLAC__OggDecoderAspect_LinkDetails, ptr %18, i64 %20
  %22 = getelementptr inbounds nuw %struct.FLAC__OggDecoderAspect_LinkDetails, ptr %21, i32 0, i32 3
  %23 = load i64, ptr %22, align 8, !tbaa !44
  %24 = load i32, ptr %7, align 4, !tbaa !37
  %25 = zext i32 %24 to i64
  %26 = add i64 %25, %23
  %27 = trunc i64 %26 to i32
  store i32 %27, ptr %7, align 4, !tbaa !37
  %28 = load i64, ptr %5, align 8, !tbaa !36
  %29 = load i32, ptr %7, align 4, !tbaa !37
  %30 = zext i32 %29 to i64
  %31 = icmp ult i64 %28, %30
  br i1 %31, label %32, label %97

32:                                               ; preds = %15
  %33 = load ptr, ptr %4, align 8, !tbaa !3
  %34 = getelementptr inbounds nuw %struct.FLAC__OggDecoderAspect, ptr %33, i32 0, i32 16
  %35 = load ptr, ptr %34, align 8, !tbaa !34
  %36 = load i32, ptr %6, align 4, !tbaa !37
  %37 = zext i32 %36 to i64
  %38 = getelementptr inbounds nuw %struct.FLAC__OggDecoderAspect_LinkDetails, ptr %35, i64 %37
  %39 = getelementptr inbounds nuw %struct.FLAC__OggDecoderAspect_LinkDetails, ptr %38, i32 0, i32 0
  %40 = load i64, ptr %39, align 8, !tbaa !45
  %41 = load ptr, ptr %4, align 8, !tbaa !3
  %42 = getelementptr inbounds nuw %struct.FLAC__OggDecoderAspect, ptr %41, i32 0, i32 17
  %43 = getelementptr inbounds nuw %struct.FLAC__OggDecoderAspect_TargetLink, ptr %42, i32 0, i32 0
  store i64 %40, ptr %43, align 8, !tbaa !46
  %44 = load ptr, ptr %4, align 8, !tbaa !3
  %45 = getelementptr inbounds nuw %struct.FLAC__OggDecoderAspect, ptr %44, i32 0, i32 16
  %46 = load ptr, ptr %45, align 8, !tbaa !34
  %47 = load i32, ptr %6, align 4, !tbaa !37
  %48 = zext i32 %47 to i64
  %49 = getelementptr inbounds nuw %struct.FLAC__OggDecoderAspect_LinkDetails, ptr %46, i64 %48
  %50 = getelementptr inbounds nuw %struct.FLAC__OggDecoderAspect_LinkDetails, ptr %49, i32 0, i32 1
  %51 = load i64, ptr %50, align 8, !tbaa !47
  %52 = load ptr, ptr %4, align 8, !tbaa !3
  %53 = getelementptr inbounds nuw %struct.FLAC__OggDecoderAspect, ptr %52, i32 0, i32 17
  %54 = getelementptr inbounds nuw %struct.FLAC__OggDecoderAspect_TargetLink, ptr %53, i32 0, i32 1
  store i64 %51, ptr %54, align 8, !tbaa !48
  %55 = load i32, ptr %7, align 4, !tbaa !37
  %56 = zext i32 %55 to i64
  %57 = load ptr, ptr %4, align 8, !tbaa !3
  %58 = getelementptr inbounds nuw %struct.FLAC__OggDecoderAspect, ptr %57, i32 0, i32 16
  %59 = load ptr, ptr %58, align 8, !tbaa !34
  %60 = load i32, ptr %6, align 4, !tbaa !37
  %61 = zext i32 %60 to i64
  %62 = getelementptr inbounds nuw %struct.FLAC__OggDecoderAspect_LinkDetails, ptr %59, i64 %61
  %63 = getelementptr inbounds nuw %struct.FLAC__OggDecoderAspect_LinkDetails, ptr %62, i32 0, i32 3
  %64 = load i64, ptr %63, align 8, !tbaa !44
  %65 = sub i64 %56, %64
  %66 = load ptr, ptr %4, align 8, !tbaa !3
  %67 = getelementptr inbounds nuw %struct.FLAC__OggDecoderAspect, ptr %66, i32 0, i32 17
  %68 = getelementptr inbounds nuw %struct.FLAC__OggDecoderAspect_TargetLink, ptr %67, i32 0, i32 3
  store i64 %65, ptr %68, align 8, !tbaa !49
  %69 = load ptr, ptr %4, align 8, !tbaa !3
  %70 = getelementptr inbounds nuw %struct.FLAC__OggDecoderAspect, ptr %69, i32 0, i32 16
  %71 = load ptr, ptr %70, align 8, !tbaa !34
  %72 = load i32, ptr %6, align 4, !tbaa !37
  %73 = zext i32 %72 to i64
  %74 = getelementptr inbounds nuw %struct.FLAC__OggDecoderAspect_LinkDetails, ptr %71, i64 %73
  %75 = getelementptr inbounds nuw %struct.FLAC__OggDecoderAspect_LinkDetails, ptr %74, i32 0, i32 2
  %76 = load i64, ptr %75, align 8, !tbaa !50
  %77 = load ptr, ptr %4, align 8, !tbaa !3
  %78 = getelementptr inbounds nuw %struct.FLAC__OggDecoderAspect, ptr %77, i32 0, i32 17
  %79 = getelementptr inbounds nuw %struct.FLAC__OggDecoderAspect_TargetLink, ptr %78, i32 0, i32 2
  store i64 %76, ptr %79, align 8, !tbaa !51
  %80 = load ptr, ptr %4, align 8, !tbaa !3
  %81 = getelementptr inbounds nuw %struct.FLAC__OggDecoderAspect, ptr %80, i32 0, i32 16
  %82 = load ptr, ptr %81, align 8, !tbaa !34
  %83 = load i32, ptr %6, align 4, !tbaa !37
  %84 = zext i32 %83 to i64
  %85 = getelementptr inbounds nuw %struct.FLAC__OggDecoderAspect_LinkDetails, ptr %82, i64 %84
  %86 = getelementptr inbounds nuw %struct.FLAC__OggDecoderAspect_LinkDetails, ptr %85, i32 0, i32 3
  %87 = load i64, ptr %86, align 8, !tbaa !44
  %88 = load ptr, ptr %4, align 8, !tbaa !3
  %89 = getelementptr inbounds nuw %struct.FLAC__OggDecoderAspect, ptr %88, i32 0, i32 17
  %90 = getelementptr inbounds nuw %struct.FLAC__OggDecoderAspect_TargetLink, ptr %89, i32 0, i32 4
  store i64 %87, ptr %90, align 8, !tbaa !52
  %91 = load i32, ptr %6, align 4, !tbaa !37
  %92 = load ptr, ptr %4, align 8, !tbaa !3
  %93 = getelementptr inbounds nuw %struct.FLAC__OggDecoderAspect, ptr %92, i32 0, i32 17
  %94 = getelementptr inbounds nuw %struct.FLAC__OggDecoderAspect_TargetLink, ptr %93, i32 0, i32 5
  store i32 %91, ptr %94, align 8, !tbaa !53
  %95 = load ptr, ptr %4, align 8, !tbaa !3
  %96 = getelementptr inbounds nuw %struct.FLAC__OggDecoderAspect, ptr %95, i32 0, i32 17
  store ptr %96, ptr %3, align 8
  store i32 1, ptr %8, align 4
  br label %101

97:                                               ; preds = %15
  %98 = load i32, ptr %6, align 4, !tbaa !37
  %99 = add i32 %98, 1
  store i32 %99, ptr %6, align 4, !tbaa !37
  br label %9, !llvm.loop !54

100:                                              ; preds = %9
  store ptr null, ptr %3, align 8
  store i32 1, ptr %8, align 4
  br label %101

101:                                              ; preds = %100, %32
  call void @llvm.lifetime.end.p0(i64 4, ptr %7) #9
  call void @llvm.lifetime.end.p0(i64 4, ptr %6) #9
  %102 = load ptr, ptr %3, align 8
  ret ptr %102
}