; Function Attrs: nofree norecurse nosync nounwind sspstrong memory(read, argmem: readwrite, inaccessiblemem: none) uwtable
define hidden noundef ptr @FLAC__ogg_decoder_aspect_get_target_link(ptr noundef %0, i64 noundef %1) local_unnamed_addr #8 {
  %3 = getelementptr inbounds nuw i8, ptr %0, i64 644
  %4 = load i32, ptr %3, align 4, !tbaa !37
  %.not = icmp eq i32 %4, 0
  br i1 %.not, label %.loopexit, label %.lr.ph

.lr.ph:                                           ; preds = %2
  %5 = getelementptr inbounds nuw i8, ptr %0, i64 584
  %6 = load ptr, ptr %5, align 8, !tbaa !27
  %wide.trip.count = zext i32 %4 to i64
  br label %7

7:                                                ; preds = %.lr.ph, %28
  %indvars.iv = phi i64 [ 0, %.lr.ph ], [ %indvars.iv.next, %28 ]
  %.035 = phi i64 [ 0, %.lr.ph ], [ %11, %28 ]
  %8 = getelementptr inbounds nuw %struct.FLAC__OggDecoderAspect_LinkDetails, ptr %6, i64 %indvars.iv
  %9 = getelementptr inbounds nuw i8, ptr %8, i64 24
  %10 = load i64, ptr %9, align 8, !tbaa !38
  %11 = add i64 %10, %.035
  %12 = and i64 %11, 4294967295
  %13 = icmp ult i64 %1, %12
  br i1 %13, label %14, label %28

14:                                               ; preds = %7
  %15 = trunc nuw i64 %indvars.iv to i32
  %16 = load i64, ptr %8, align 8, !tbaa !39
  %17 = getelementptr inbounds nuw i8, ptr %0, i64 592
  store i64 %16, ptr %17, align 8, !tbaa !40
  %18 = getelementptr inbounds nuw %struct.FLAC__OggDecoderAspect_LinkDetails, ptr %6, i64 %indvars.iv, i32 1
  %19 = load i64, ptr %18, align 8, !tbaa !41
  %20 = getelementptr inbounds nuw i8, ptr %0, i64 600
  store i64 %19, ptr %20, align 8, !tbaa !42
  %21 = sub i64 %12, %10
  %22 = getelementptr inbounds nuw i8, ptr %0, i64 616
  store i64 %21, ptr %22, align 8, !tbaa !43
  %23 = getelementptr inbounds nuw %struct.FLAC__OggDecoderAspect_LinkDetails, ptr %6, i64 %indvars.iv, i32 2
  %24 = load i64, ptr %23, align 8, !tbaa !44
  %25 = getelementptr inbounds nuw i8, ptr %0, i64 608
  store i64 %24, ptr %25, align 8, !tbaa !45
  %26 = getelementptr inbounds nuw i8, ptr %0, i64 624
  store i64 %10, ptr %26, align 8, !tbaa !46
  %27 = getelementptr inbounds nuw i8, ptr %0, i64 632
  store i32 %15, ptr %27, align 8, !tbaa !47
  br label %.loopexit

28:                                               ; preds = %7
  %indvars.iv.next = add nuw nsw i64 %indvars.iv, 1
  %exitcond.not = icmp eq i64 %indvars.iv.next, %wide.trip.count
  br i1 %exitcond.not, label %.loopexit, label %7, !llvm.loop !48

.loopexit:                                        ; preds = %28, %2, %14
  %.028 = phi ptr [ %17, %14 ], [ null, %2 ], [ null, %28 ]
  ret ptr %.028
}